; ModuleID = '55/1403.cpp'
source_filename = "55/1403.cpp"
target datalayout = "e-m:e-p270:32:32-p271:32:32-p272:64:64-i64:64-f80:128-n8:16:32:64-S128"
target triple = "x86_64-pc-linux-gnu"

%"class.std::ios_base::Init" = type { i8 }
%"class.std::basic_istream" = type { i32 (...)**, i64, %"class.std::basic_ios" }
%"class.std::basic_ios" = type { %"class.std::ios_base", %"class.std::basic_ostream"*, i8, i8, %"class.std::basic_streambuf"*, %"class.std::ctype"*, %"class.std::num_put"*, %"class.std::num_get"* }
%"class.std::ios_base" = type { i32 (...)**, i64, i64, i32, i32, i32, %"struct.std::ios_base::_Callback_list"*, %"struct.std::ios_base::_Words", [8 x %"struct.std::ios_base::_Words"], i32, %"struct.std::ios_base::_Words"*, %"class.std::locale" }
%"struct.std::ios_base::_Callback_list" = type { %"struct.std::ios_base::_Callback_list"*, void (i32, %"class.std::ios_base"*, i32)*, i32, i32 }
%"struct.std::ios_base::_Words" = type { i8*, i64 }
%"class.std::locale" = type { %"class.std::locale::_Impl"* }
%"class.std::locale::_Impl" = type { i32, %"class.std::locale::facet"**, i64, %"class.std::locale::facet"**, i8** }
%"class.std::locale::facet" = type <{ i32 (...)**, i32, [4 x i8] }>
%"class.std::basic_ostream" = type { i32 (...)**, %"class.std::basic_ios" }
%"class.std::basic_streambuf" = type { i32 (...)**, i8*, i8*, i8*, i8*, i8*, i8*, %"class.std::locale" }
%"class.std::ctype" = type <{ %"class.std::locale::facet.base", [4 x i8], %struct.__locale_struct*, i8, [7 x i8], i32*, i32*, i16*, i8, [256 x i8], [256 x i8], i8, [6 x i8] }>
%"class.std::locale::facet.base" = type <{ i32 (...)**, i32 }>
%struct.__locale_struct = type { [13 x %struct.__locale_data*], i16*, i32*, i32*, [13 x i8*] }
%struct.__locale_data = type opaque
%"class.std::num_put" = type { %"class.std::locale::facet.base", [4 x i8] }
%"class.std::num_get" = type { %"class.std::locale::facet.base", [4 x i8] }

@_ZStL8__ioinit = internal global %"class.std::ios_base::Init" zeroinitializer, align 1
@__dso_handle = external hidden global i8
@_ZSt3cin = external dso_local global %"class.std::basic_istream", align 8
@_ZSt4cout = external dso_local global %"class.std::basic_ostream", align 8
@llvm.global_ctors = appending global [1 x { i32, void ()*, i8* }] [{ i32, void ()*, i8* } { i32 65535, void ()* @_GLOBAL__sub_I_1403.cpp, i8* null }]

; Function Attrs: noinline uwtable
define internal void @__cxx_global_var_init() #0 section ".text.startup" {
  call void @_ZNSt8ios_base4InitC1Ev(%"class.std::ios_base::Init"* @_ZStL8__ioinit)
  %1 = call i32 @__cxa_atexit(void (i8*)* bitcast (void (%"class.std::ios_base::Init"*)* @_ZNSt8ios_base4InitD1Ev to void (i8*)*), i8* getelementptr inbounds (%"class.std::ios_base::Init", %"class.std::ios_base::Init"* @_ZStL8__ioinit, i32 0, i32 0), i8* @__dso_handle) #3
  ret void
}

declare dso_local void @_ZNSt8ios_base4InitC1Ev(%"class.std::ios_base::Init"*) unnamed_addr #1

; Function Attrs: nounwind
declare dso_local void @_ZNSt8ios_base4InitD1Ev(%"class.std::ios_base::Init"*) unnamed_addr #2

; Function Attrs: nounwind
declare dso_local i32 @__cxa_atexit(void (i8*)*, i8*, i8*) #3

; Function Attrs: noinline norecurse uwtable
define dso_local i32 @main() #4 {
  %1 = alloca i32, align 4
  %2 = alloca i32, align 4
  %3 = alloca i32, align 4
  %4 = alloca [100 x i8], align 16
  store i32 0, i32* %1, align 4
  %5 = call dereferenceable(280) %"class.std::basic_istream"* @_ZNSirsERi(%"class.std::basic_istream"* @_ZSt3cin, i32* dereferenceable(4) %2)
  %6 = getelementptr inbounds [100 x i8], [100 x i8]* %4, i64 0, i64 0
  %7 = call dereferenceable(280) %"class.std::basic_istream"* @_ZStrsIcSt11char_traitsIcEERSt13basic_istreamIT_T0_ES6_PS3_(%"class.std::basic_istream"* dereferenceable(280) %5, i8* %6)
  %8 = call dereferenceable(280) %"class.std::basic_istream"* @_ZNSirsERi(%"class.std::basic_istream"* %7, i32* dereferenceable(4) %3)
  %9 = getelementptr inbounds [100 x i8], [100 x i8]* %4, i64 0, i64 0
  %10 = load i32, i32* %2, align 4
  %11 = call i64 @_Z12convert_to10Pci(i8* %9, i32 %10)
  %12 = load i32, i32* %3, align 4
  call void @_Z14convert_from10li(i64 %11, i32 %12)
  ret i32 0
}

declare dso_local dereferenceable(280) %"class.std::basic_istream"* @_ZStrsIcSt11char_traitsIcEERSt13basic_istreamIT_T0_ES6_PS3_(%"class.std::basic_istream"* dereferenceable(280), i8*) #1

declare dso_local dereferenceable(280) %"class.std::basic_istream"* @_ZNSirsERi(%"class.std::basic_istream"*, i32* dereferenceable(4)) #1

; Function Attrs: noinline uwtable
define dso_local void @_Z14convert_from10li(i64 %0, i32 %1) #0 {
  %3 = alloca i64, align 8
  %4 = alloca i32, align 4
  %5 = alloca [10000 x i8], align 16
  %6 = alloca i32, align 4
  %7 = alloca i32, align 4
  %8 = alloca i32, align 4
  %9 = alloca i32, align 4
  store i64 %0, i64* %3, align 8
  store i32 %1, i32* %4, align 4
  store i32 0, i32* %6, align 4
  br label %10

10:                                               ; preds = %60, %2
  %11 = load i64, i64* %3, align 8
  %12 = load i32, i32* %4, align 4
  %13 = sext i32 %12 to i64
  %14 = srem i64 %11, %13
  %15 = trunc i64 %14 to i32
  store i32 %15, i32* %8, align 4
  %16 = load i32, i32* %8, align 4
  %17 = icmp slt i32 %16, 10
  br i1 %17, label %18, label %25

18:                                               ; preds = %10
  %19 = load i32, i32* %8, align 4
  %20 = add nsw i32 %19, 48
  %21 = trunc i32 %20 to i8
  %22 = load i32, i32* %6, align 4
  %23 = sext i32 %22 to i64
  %24 = getelementptr inbounds [10000 x i8], [10000 x i8]* %5, i64 0, i64 %23
  store i8 %21, i8* %24, align 1
  br label %33

25:                                               ; preds = %10
  %26 = load i32, i32* %8, align 4
  %27 = sub nsw i32 %26, 10
  %28 = add nsw i32 %27, 65
  %29 = trunc i32 %28 to i8
  %30 = load i32, i32* %6, align 4
  %31 = sext i32 %30 to i64
  %32 = getelementptr inbounds [10000 x i8], [10000 x i8]* %5, i64 0, i64 %31
  store i8 %29, i8* %32, align 1
  br label %33

33:                                               ; preds = %25, %18
  %34 = load i64, i64* %3, align 8
  %35 = load i32, i32* %8, align 4
  %36 = sext i32 %35 to i64
  %37 = sub nsw i64 %34, %36
  %38 = load i32, i32* %4, align 4
  %39 = sext i32 %38 to i64
  %40 = sdiv i64 %37, %39
  store i64 %40, i64* %3, align 8
  %41 = load i32, i32* %6, align 4
  store i32 %41, i32* %9, align 4
  %42 = load i64, i64* %3, align 8
  %43 = icmp eq i64 %42, 0
  br i1 %43, label %44, label %59

44:                                               ; preds = %33
  %45 = load i32, i32* %9, align 4
  store i32 %45, i32* %7, align 4
  br label %46

46:                                               ; preds = %55, %44
  %47 = load i32, i32* %7, align 4
  %48 = icmp sge i32 %47, 0
  br i1 %48, label %49, label %58

49:                                               ; preds = %46
  %50 = load i32, i32* %7, align 4
  %51 = sext i32 %50 to i64
  %52 = getelementptr inbounds [10000 x i8], [10000 x i8]* %5, i64 0, i64 %51
  %53 = load i8, i8* %52, align 1
  %54 = call dereferenceable(272) %"class.std::basic_ostream"* @_ZStlsISt11char_traitsIcEERSt13basic_ostreamIcT_ES5_c(%"class.std::basic_ostream"* dereferenceable(272) @_ZSt4cout, i8 signext %53)
  br label %55

55:                                               ; preds = %49
  %56 = load i32, i32* %7, align 4
  %57 = add nsw i32 %56, -1
  store i32 %57, i32* %7, align 4
  br label %46

58:                                               ; preds = %46
  br label %63

59:                                               ; preds = %33
  br label %60

60:                                               ; preds = %59
  %61 = load i32, i32* %6, align 4
  %62 = add nsw i32 %61, 1
  store i32 %62, i32* %6, align 4
  br label %10

63:                                               ; preds = %58
  ret void
}

; Function Attrs: noinline nounwind uwtable
define dso_local i64 @_Z12convert_to10Pci(i8* %0, i32 %1) #5 {
  %3 = alloca i8*, align 8
  %4 = alloca i32, align 4
  %5 = alloca i32, align 4
  %6 = alloca i32, align 4
  %7 = alloca i64, align 8
  store i8* %0, i8** %3, align 8
  store i32 %1, i32* %4, align 4
  store i64 0, i64* %7, align 8
  %8 = load i8*, i8** %3, align 8
  %9 = call i64 @strlen(i8* %8) #7
  %10 = trunc i64 %9 to i32
  store i32 %10, i32* %5, align 4
  store i32 0, i32* %6, align 4
  br label %11

11:                                               ; preds = %105, %2
  %12 = load i32, i32* %6, align 4
  %13 = load i32, i32* %5, align 4
  %14 = icmp slt i32 %12, %13
  br i1 %14, label %15, label %108

15:                                               ; preds = %11
  %16 = load i8*, i8** %3, align 8
  %17 = load i32, i32* %6, align 4
  %18 = sext i32 %17 to i64
  %19 = getelementptr inbounds i8, i8* %16, i64 %18
  %20 = load i8, i8* %19, align 1
  %21 = sext i8 %20 to i32
  %22 = icmp sge i32 %21, 65
  br i1 %22, label %23, label %45

23:                                               ; preds = %15
  %24 = load i8*, i8** %3, align 8
  %25 = load i32, i32* %6, align 4
  %26 = sext i32 %25 to i64
  %27 = getelementptr inbounds i8, i8* %24, i64 %26
  %28 = load i8, i8* %27, align 1
  %29 = sext i8 %28 to i32
  %30 = icmp sle i32 %29, 90
  br i1 %30, label %31, label %45

31:                                               ; preds = %23
  %32 = load i64, i64* %7, align 8
  %33 = load i32, i32* %4, align 4
  %34 = sext i32 %33 to i64
  %35 = mul nsw i64 %32, %34
  %36 = load i8*, i8** %3, align 8
  %37 = load i32, i32* %6, align 4
  %38 = sext i32 %37 to i64
  %39 = getelementptr inbounds i8, i8* %36, i64 %38
  %40 = load i8, i8* %39, align 1
  %41 = sext i8 %40 to i64
  %42 = add nsw i64 %35, %41
  %43 = sub nsw i64 %42, 65
  %44 = add nsw i64 %43, 10
  store i64 %44, i64* %7, align 8
  br label %45

45:                                               ; preds = %31, %23, %15
  %46 = load i8*, i8** %3, align 8
  %47 = load i32, i32* %6, align 4
  %48 = sext i32 %47 to i64
  %49 = getelementptr inbounds i8, i8* %46, i64 %48
  %50 = load i8, i8* %49, align 1
  %51 = sext i8 %50 to i32
  %52 = icmp sge i32 %51, 97
  br i1 %52, label %53, label %75

53:                                               ; preds = %45
  %54 = load i8*, i8** %3, align 8
  %55 = load i32, i32* %6, align 4
  %56 = sext i32 %55 to i64
  %57 = getelementptr inbounds i8, i8* %54, i64 %56
  %58 = load i8, i8* %57, align 1
  %59 = sext i8 %58 to i32
  %60 = icmp sle i32 %59, 122
  br i1 %60, label %61, label %75

61:                                               ; preds = %53
  %62 = load i64, i64* %7, align 8
  %63 = load i32, i32* %4, align 4
  %64 = sext i32 %63 to i64
  %65 = mul nsw i64 %62, %64
  %66 = load i8*, i8** %3, align 8
  %67 = load i32, i32* %6, align 4
  %68 = sext i32 %67 to i64
  %69 = getelementptr inbounds i8, i8* %66, i64 %68
  %70 = load i8, i8* %69, align 1
  %71 = sext i8 %70 to i64
  %72 = add nsw i64 %65, %71
  %73 = sub nsw i64 %72, 97
  %74 = add nsw i64 %73, 10
  store i64 %74, i64* %7, align 8
  br label %75

75:                                               ; preds = %61, %53, %45
  %76 = load i8*, i8** %3, align 8
  %77 = load i32, i32* %6, align 4
  %78 = sext i32 %77 to i64
  %79 = getelementptr inbounds i8, i8* %76, i64 %78
  %80 = load i8, i8* %79, align 1
  %81 = sext i8 %80 to i32
  %82 = icmp sge i32 %81, 48
  br i1 %82, label %83, label %104

83:                                               ; preds = %75
  %84 = load i8*, i8** %3, align 8
  %85 = load i32, i32* %6, align 4
  %86 = sext i32 %85 to i64
  %87 = getelementptr inbounds i8, i8* %84, i64 %86
  %88 = load i8, i8* %87, align 1
  %89 = sext i8 %88 to i32
  %90 = icmp sle i32 %89, 57
  br i1 %90, label %91, label %104

91:                                               ; preds = %83
  %92 = load i64, i64* %7, align 8
  %93 = load i32, i32* %4, align 4
  %94 = sext i32 %93 to i64
  %95 = mul nsw i64 %92, %94
  %96 = load i8*, i8** %3, align 8
  %97 = load i32, i32* %6, align 4
  %98 = sext i32 %97 to i64
  %99 = getelementptr inbounds i8, i8* %96, i64 %98
  %100 = load i8, i8* %99, align 1
  %101 = sext i8 %100 to i64
  %102 = add nsw i64 %95, %101
  %103 = sub nsw i64 %102, 48
  store i64 %103, i64* %7, align 8
  br label %104

104:                                              ; preds = %91, %83, %75
  br label %105

105:                                              ; preds = %104
  %106 = load i32, i32* %6, align 4
  %107 = add nsw i32 %106, 1
  store i32 %107, i32* %6, align 4
  br label %11

108:                                              ; preds = %11
  %109 = load i64, i64* %7, align 8
  ret i64 %109
}

; Function Attrs: nounwind readonly
declare dso_local i64 @strlen(i8*) #6

declare dso_local dereferenceable(272) %"class.std::basic_ostream"* @_ZStlsISt11char_traitsIcEERSt13basic_ostreamIcT_ES5_c(%"class.std::basic_ostream"* dereferenceable(272), i8 signext) #1

; Function Attrs: noinline uwtable
define internal void @_GLOBAL__sub_I_1403.cpp() #0 section ".text.startup" {
  call void @__cxx_global_var_init()
  ret void
}


!llvm.module.flags = !{!0}
!llvm.ident = !{!1}

!0 = !{i32 1, !"wchar_size", i32 4}
!1 = !{!"clang version 10.0.0-4ubuntu1 "}
